; Function Attrs: mustprogress nofree norecurse nosync nounwind willreturn memory(read, inaccessiblemem: none) uwtable
define ptr @PQhost(ptr noundef readonly captures(address_is_null) %0) local_unnamed_addr #15 {
  %.not = icmp eq ptr %0, null
  br i1 %.not, label %19, label %2

2:                                                ; preds = %1
  %3 = getelementptr inbounds nuw i8, ptr %0, i64 480
  %4 = load ptr, ptr %3, align 8
  %.not19 = icmp eq ptr %4, null
  br i1 %.not19, label %18, label %5

5:                                                ; preds = %2
  %6 = getelementptr inbounds nuw i8, ptr %0, i64 476
  %7 = load i32, ptr %6, align 4
  %8 = sext i32 %7 to i64
  %9 = getelementptr inbounds %struct.pg_conn_host, ptr %4, i64 %8, i32 1
  %10 = load ptr, ptr %9, align 8
  %.not20 = icmp eq ptr %10, null
  br i1 %.not20, label %13, label %11

11:                                               ; preds = %5
  %12 = load i8, ptr %10, align 1
  %.not21 = icmp eq i8 %12, 0
  br i1 %.not21, label %13, label %19

13:                                               ; preds = %11, %5
  %14 = getelementptr inbounds %struct.pg_conn_host, ptr %4, i64 %8, i32 2
  %15 = load ptr, ptr %14, align 8
  %.not22 = icmp eq ptr %15, null
  br i1 %.not22, label %18, label %16

16:                                               ; preds = %13
  %17 = load i8, ptr %15, align 1
  %.not23 = icmp eq i8 %17, 0
  br i1 %.not23, label %18, label %19

18:                                               ; preds = %16, %13, %2
  br label %19

19:                                               ; preds = %16, %11, %1, %18
  %.0 = phi ptr [ @.str.55, %18 ], [ null, %1 ], [ %10, %11 ], [ %15, %16 ]
  ret ptr %.0
}